(dp0
S'pddoshi'
p1
(lp2
(S''
p3
g3
S'sleepy'
p4
tp5
a(g3
g3
S'sleepy'
p6
tp7
a(S'1'
p8
S'7'
p9
S'sleepy'
p10
tp11
a(S'1'
p12
S'7'
p13
S'sleepy'
p14
tp15
a(S'1'
p16
S'7'
p17
S'sleepy'
p18
tp19
a(S'1'
p20
S'7'
p21
S'sleepy'
p22
tp23
a(S'1'
p24
S'7'
p25
S'sleepy'
p26
tp27
a(S'1'
p28
S'7'
p29
S'sleepy'
p30
tp31
a(S'1'
p32
S'7'
p33
S'sleepy'
p34
tp35
a(S'1'
p36
S'7'
p37
S'sleepy'
p38
tp39
a(S'1'
p40
S'7'
p41
S'sleepy'
p42
tp43
a(S'1'
p44
S'7'
p45
S'sleepy'
p46
tp47
a(S'1'
p48
S'7'
p49
S'sleepy'
p50
tp51
a(S'122'
p52
S'7'
p53
S'sleepy'
p54
tp55
a(S'122'
p56
S'7'
p57
S'sleepy'
p58
tp59
a(S'122'
p60
S'7'
p61
S'sleepy'
p62
tp63
a(S'122'
p64
S'7'
p65
S'sleepy'
p66
tp67
a(S'122'
p68
S'7'
p69
S'sleepy'
p70
tp71
asS'ronag'
p72
(lp73
(I8
I5
S'awake'
p74
tp75
a(I9
I10
S'awake'
p76
tp77
a(I11
I10
S'awake'
p78
tp79
a(S'10'
p80
S'6'
p81
S'sleepy'
p82
tp83
asS'batman'
p84
(lp85
(I2
I4
S'awake'
p86
tp87
asS'dflak'
p88
(lp89
(S'1'
p90
S'6'
p91
S'awake'
p92
tp93
asS'jp'
p94
(lp95
(I2
I5
S'sleepy'
p96
tp97
asS'lad'
p98
(lp99
(S'1997'
p100
S'148'
p101
S'sleepy'
p102
tp103
asS'killa'
p104
(lp105
(S'1997'
p106
S'148'
p107
S'sleepy'
p108
tp109
asS'akemburu'
p110
(lp111
(I1
I5
g96
tp112
a(I2
I6
g86
tp113
a(S'15'
p114
S'10'
p115
S'awake'
p116
tp117
a(S'15'
p118
S'10'
p119
S'awake'
p120
tp121
a(S'23'
p122
S'14'
p123
S'awake'
p124
tp125
a(S'2'
p126
S'10'
p127
S'sleepy'
p128
tp129
a(S'6'
p130
S'4'
p131
S'sleepy'
p132
tp133
a(S'25'
p134
S'8'
p135
S'sleepy'
p136
tp137
a(S'18'
p138
S'5'
p139
S'sleepy'
p140
tp141
a(S'17'
p142
S'4'
p143
S'sleepy'
p144
tp145
a(S'27'
p146
S'4'
p147
S'awake'
p148
tp149
a(S'30'
p150
S'7'
p151
S'sleepy'
p152
tp153
a(S'04'
p154
S'5'
p155
S'sleepy'
p156
tp157
a(S'31'
p158
S'5'
p159
S'sleepy'
p160
tp161
a(S'32'
p162
S'6'
p163
S'sleepy'
p164
tp165
a(S'14'
p166
S'5'
p167
S'sleepy'
p168
tp169
a(S'22'
p170
S'4'
p171
S'sleepy'
p172
tp173
a(S'29'
p174
S'6'
p175
S'awake'
p176
tp177
a(S'44'
p178
S'3'
p179
S'sleepy'
p180
tp181
a(S'33'
p182
S'4'
p183
S'sleepy'
p184
tp185
a(S'77'
p186
S'6'
p187
S'sleepy'
p188
tp189
a(S'15'
p190
S'8'
p191
S'sleepy'
p192
tp193
a(S'4'
p194
S'10'
p195
S'awake'
p196
tp197
asS'superman'
p198
(lp199
(S'1'
p200
S'10'
p201
S'awake'
p202
tp203
as.